; Function Attrs: inlinehint mustprogress nounwind optsize uwtable
define internal noundef nonnull ptr @_ZZN8nanobind6detail11func_createILb0ELb1EZNS_4initIJEE7executeINS_6class_IZL30nanobind_init_test_classes_extRNS_7module_EE5UnionJEEEJEEEvRT_DpRKT0_EUlNS_18pointer_and_handleIS8_EEE_vJSH_EJLm0EEJNS_5scopeENS_4nameENS_9is_methodEEEEP7_objectOT1_PFT2_DpT3_ESt16integer_sequenceImJXspT4_EEEDpRKT5_ENUlPvPSN_PhNS_9rv_policyEPNS0_12cleanup_listEE_8__invokeES11_S12_S13_S14_S16_(ptr readnone captures(none) %0, ptr noundef readonly captures(none) %1, ptr noundef readonly captures(none) %2, i32 %3, ptr noundef %4) #20 align 2 personality ptr @__gxx_personality_v0 {
  %6 = alloca %"struct.nanobind::detail::type_caster.843", align 8
  %7 = load ptr, ptr %1, align 8, !tbaa !23
  %8 = load i8, ptr %2, align 1, !tbaa !61
  call void @llvm.lifetime.start.p0(i64 8, ptr nonnull %6) #37
  %9 = and i8 %8, 8
  %.not.i.i = icmp eq i8 %9, 0
  %10 = and i8 %8, -2
  %spec.select.i.i = select i1 %.not.i.i, i8 %8, i8 %10
  %11 = call noundef zeroext i1 @_ZN8nanobind6detail11nb_type_getEPKSt9type_infoP7_objecthPNS0_12cleanup_listEPPv(ptr noundef nonnull @_ZTIZL30nanobind_init_test_classes_extRN8nanobind7module_EE5Union, ptr noundef %7, i8 noundef zeroext %spec.select.i.i, ptr noundef %4, ptr noundef nonnull align 8 dereferenceable(8) %6) #35
  br i1 %11, label %12, label %_ZN8nanobind6detail11type_casterINS_18pointer_and_handleIZL30nanobind_init_test_classes_extRNS_7module_EE5UnionEEiE11from_pythonENS_6handleEhPNS0_12cleanup_listE.exit

_ZN8nanobind6detail11type_casterINS_18pointer_and_handleIZL30nanobind_init_test_classes_extRNS_7module_EE5UnionEEiE11from_pythonENS_6handleEhPNS0_12cleanup_listE.exit: ; preds = %5
  call void @llvm.lifetime.end.p0(i64 8, ptr nonnull %6) #37
  br label %_ZZN8nanobind6detail11func_createILb0ELb1EZNS_4initIJEE7executeINS_6class_IZL30nanobind_init_test_classes_extRNS_7module_EE5UnionJEEEJEEEvRT_DpRKT0_EUlNS_18pointer_and_handleIS8_EEE_vJSH_EJLm0EEJNS_5scopeENS_4nameENS_9is_methodEEEEP7_objectOT1_PFT2_DpT3_ESt16integer_sequenceImJXspT4_EEEDpRKT5_ENKUlPvPSN_PhNS_9rv_policyEPNS0_12cleanup_listEE_clES11_S12_S13_S14_S16_.exit

12:                                               ; preds = %5
  %.val.i = load ptr, ptr %6, align 8, !tbaa !572
  call void @llvm.lifetime.end.p0(i64 8, ptr nonnull %6) #37
  store i32 0, ptr %.val.i, align 4, !tbaa !61
  %13 = load i64, ptr @_Py_NoneStruct, align 8, !tbaa !86
  %14 = add nsw i64 %13, 1
  store i64 %14, ptr @_Py_NoneStruct, align 8, !tbaa !86
  br label %_ZZN8nanobind6detail11func_createILb0ELb1EZNS_4initIJEE7executeINS_6class_IZL30nanobind_init_test_classes_extRNS_7module_EE5UnionJEEEJEEEvRT_DpRKT0_EUlNS_18pointer_and_handleIS8_EEE_vJSH_EJLm0EEJNS_5scopeENS_4nameENS_9is_methodEEEEP7_objectOT1_PFT2_DpT3_ESt16integer_sequenceImJXspT4_EEEDpRKT5_ENKUlPvPSN_PhNS_9rv_policyEPNS0_12cleanup_listEE_clES11_S12_S13_S14_S16_.exit

_ZZN8nanobind6detail11func_createILb0ELb1EZNS_4initIJEE7executeINS_6class_IZL30nanobind_init_test_classes_extRNS_7module_EE5UnionJEEEJEEEvRT_DpRKT0_EUlNS_18pointer_and_handleIS8_EEE_vJSH_EJLm0EEJNS_5scopeENS_4nameENS_9is_methodEEEEP7_objectOT1_PFT2_DpT3_ESt16integer_sequenceImJXspT4_EEEDpRKT5_ENKUlPvPSN_PhNS_9rv_policyEPNS0_12cleanup_listEE_clES11_S12_S13_S14_S16_.exit: ; preds = %_ZN8nanobind6detail11type_casterINS_18pointer_and_handleIZL30nanobind_init_test_classes_extRNS_7module_EE5UnionEEiE11from_pythonENS_6handleEhPNS0_12cleanup_listE.exit, %12
  %.0.i = phi ptr [ @_Py_NoneStruct, %12 ], [ inttoptr (i64 1 to ptr), %_ZN8nanobind6detail11type_casterINS_18pointer_and_handleIZL30nanobind_init_test_classes_extRNS_7module_EE5UnionEEiE11from_pythonENS_6handleEhPNS0_12cleanup_listE.exit ]
  ret ptr %.0.i
}